; Function Attrs: nounwind uwtable
define ptr @l_Lean_Elab_Structural_RecArgInfo_indName_x21(ptr noundef readonly captures(none) %0) local_unnamed_addr #0 {
  %2 = getelementptr inbounds nuw i8, ptr %0, i64 40
  %3 = load ptr, ptr %2, align 8, !tbaa !4
  %4 = getelementptr inbounds nuw i8, ptr %3, i64 8
  %5 = load ptr, ptr %4, align 8, !tbaa !4
  %6 = getelementptr inbounds nuw i8, ptr %5, i64 8
  %7 = load ptr, ptr %6, align 8, !tbaa !4
  %8 = getelementptr inbounds nuw i8, ptr %0, i64 48
  %9 = load ptr, ptr %8, align 8, !tbaa !4
  %10 = load ptr, ptr @l_Lean_instInhabitedName, align 8, !tbaa !4
  %11 = ptrtoint ptr %9 to i64
  %12 = and i64 %11, 1
  %.not.i = icmp eq i64 %12, 0
  br i1 %.not.i, label %lean_array_uget.exit.i, label %13

13:                                               ; preds = %1
  %14 = lshr i64 %11, 1
  %15 = getelementptr i8, ptr %7, i64 8
  %.val.i = load i64, ptr %15, align 8, !tbaa !12
  %16 = icmp ult i64 %14, %.val.i
  br i1 %16, label %17, label %lean_array_uget.exit.i

17:                                               ; preds = %13
  %18 = ptrtoint ptr %10 to i64
  %19 = and i64 %18, 1
  %.not14.i = icmp eq i64 %19, 0
  br i1 %.not14.i, label %20, label %lean_dec.exit.i

20:                                               ; preds = %17
  %21 = load i32, ptr %10, align 4, !tbaa !8
  %22 = icmp sgt i32 %21, 1
  br i1 %22, label %23, label %25, !prof !11

23:                                               ; preds = %20
  %24 = add nsw i32 %21, -1
  store i32 %24, ptr %10, align 4, !tbaa !8
  br label %lean_dec.exit.i

25:                                               ; preds = %20
  %.not.i.i = icmp eq i32 %21, 0
  br i1 %.not.i.i, label %lean_dec.exit.i, label %26

26:                                               ; preds = %25
  tail call void @lean_dec_ref_cold(ptr noundef nonnull %10) #4
  br label %lean_dec.exit.i

lean_dec.exit.i:                                  ; preds = %26, %25, %23, %17
  %27 = getelementptr inbounds nuw i8, ptr %7, i64 24
  %28 = getelementptr inbounds nuw [0 x ptr], ptr %27, i64 0, i64 %14
  %29 = load ptr, ptr %28, align 8, !tbaa !4
  %30 = ptrtoint ptr %29 to i64
  %31 = and i64 %30, 1
  %.not.i11.i = icmp eq i64 %31, 0
  br i1 %.not.i11.i, label %32, label %lean_array_get.exit

32:                                               ; preds = %lean_dec.exit.i
  %.val.i.i.i = load i32, ptr %29, align 4, !tbaa !8
  %33 = icmp sgt i32 %.val.i.i.i, 0
  br i1 %33, label %34, label %36, !prof !11

34:                                               ; preds = %32
  %35 = add nuw i32 %.val.i.i.i, 1
  store i32 %35, ptr %29, align 4, !tbaa !8
  br label %lean_array_get.exit

36:                                               ; preds = %32
  %.not.i.i.i = icmp eq i32 %.val.i.i.i, 0
  br i1 %.not.i.i.i, label %lean_array_get.exit, label %37

37:                                               ; preds = %36
  tail call void @lean_inc_ref_cold(ptr noundef nonnull %29) #4
  br label %lean_array_get.exit

lean_array_uget.exit.i:                           ; preds = %13, %1
  %38 = tail call ptr @lean_array_get_panic(ptr noundef %10) #4
  br label %lean_array_get.exit

lean_array_get.exit:                              ; preds = %lean_dec.exit.i, %34, %36, %37, %lean_array_uget.exit.i
  %.1.i = phi ptr [ %38, %lean_array_uget.exit.i ], [ %29, %37 ], [ %29, %36 ], [ %29, %34 ], [ %29, %lean_dec.exit.i ]
  ret ptr %.1.i
}